; Function Attrs: mustprogress uwtable
define void @_ZN24MLRenderingParametersTab18switchWireModalityEP29MLRenderingFauxEdgeWireAction(ptr noundef nonnull align 8 dereferenceable(72) %0, ptr noundef %1) local_unnamed_addr #3 align 2 personality ptr @__gxx_personality_v0 {
  %3 = getelementptr inbounds i8, ptr %0, i64 56
  %4 = load ptr, ptr %3, align 8
  %5 = load atomic i32, ptr %4 monotonic, align 4
  %6 = icmp ugt i32 %5, 1
  br i1 %6, label %7, label %_ZN4QMapI7QStringP26MLRenderingParametersFrameE5beginEv.exit

7:                                                ; preds = %2
  tail call void @_ZN4QMapI7QStringP26MLRenderingParametersFrameE13detach_helperEv(ptr noundef nonnull align 8 dereferenceable(8) %3)
  %.pre.i = load ptr, ptr %3, align 8
  br label %_ZN4QMapI7QStringP26MLRenderingParametersFrameE5beginEv.exit

_ZN4QMapI7QStringP26MLRenderingParametersFrameE5beginEv.exit: ; preds = %2, %7
  %8 = phi ptr [ %4, %2 ], [ %.pre.i, %7 ]
  %9 = getelementptr inbounds i8, ptr %8, i64 16
  %10 = load ptr, ptr %9, align 8
  %.not.i.i = icmp eq ptr %10, null
  %11 = getelementptr inbounds i8, ptr %8, i64 32
  %12 = load ptr, ptr %11, align 8
  %13 = getelementptr inbounds i8, ptr %8, i64 8
  %.0.i.i = select i1 %.not.i.i, ptr %13, ptr %12
  br label %14

14:                                               ; preds = %27, %_ZN4QMapI7QStringP26MLRenderingParametersFrameE5beginEv.exit
  %15 = phi ptr [ %8, %_ZN4QMapI7QStringP26MLRenderingParametersFrameE5beginEv.exit ], [ %.pre, %27 ]
  %.sroa.06.0 = phi ptr [ %.0.i.i, %_ZN4QMapI7QStringP26MLRenderingParametersFrameE5beginEv.exit ], [ %28, %27 ]
  %16 = load atomic i32, ptr %15 monotonic, align 4
  %17 = icmp ugt i32 %16, 1
  br i1 %17, label %18, label %_ZN4QMapI7QStringP26MLRenderingParametersFrameE3endEv.exit

18:                                               ; preds = %14
  tail call void @_ZN4QMapI7QStringP26MLRenderingParametersFrameE13detach_helperEv(ptr noundef nonnull align 8 dereferenceable(8) %3)
  %.pre.i5 = load ptr, ptr %3, align 8
  br label %_ZN4QMapI7QStringP26MLRenderingParametersFrameE3endEv.exit

_ZN4QMapI7QStringP26MLRenderingParametersFrameE3endEv.exit: ; preds = %14, %18
  %19 = phi ptr [ %15, %14 ], [ %.pre.i5, %18 ]
  %20 = getelementptr inbounds i8, ptr %19, i64 8
  %.not9 = icmp eq ptr %.sroa.06.0, %20
  br i1 %.not9, label %29, label %21

21:                                               ; preds = %_ZN4QMapI7QStringP26MLRenderingParametersFrameE3endEv.exit
  %22 = getelementptr inbounds i8, ptr %.sroa.06.0, i64 32
  %23 = load ptr, ptr %22, align 8
  %24 = tail call noundef ptr @_ZNK11QMetaObject4castEP7QObject(ptr noundef nonnull align 8 dereferenceable(48) @_ZN30MLRenderingWireParametersFrame16staticMetaObjectE, ptr noundef %23)
  %.not = icmp eq ptr %24, null
  br i1 %.not, label %27, label %25

25:                                               ; preds = %21
  %26 = tail call noundef i32 @_ZNK17MLRenderingAction6meshIdEv(ptr noundef nonnull align 8 dereferenceable(16) %1)
  tail call void @_ZN30MLRenderingWireParametersFrame18switchWireModalityEiP17MLRenderingAction(ptr noundef nonnull align 8 dereferenceable(112) %24, i32 noundef %26, ptr noundef nonnull %1)
  br label %27

27:                                               ; preds = %21, %25
  %28 = tail call noundef ptr @_ZNK12QMapNodeBase8nextNodeEv(ptr noundef nonnull align 8 dereferenceable(24) %.sroa.06.0)
  %.pre = load ptr, ptr %3, align 8
  br label %14, !llvm.loop !102

29:                                               ; preds = %_ZN4QMapI7QStringP26MLRenderingParametersFrameE3endEv.exit
  ret void
}